target datalayout = "e-m:e-p270:32:32-p271:32:32-p272:64:64-i64:64-i128:128-f80:128-n8:16:32:64-S128"
target triple = "x86_64-pc-linux-gnu"

%struct._lv_indev_t = type { i32, ptr, i32, i32, i32, i8, i32, i32, ptr, ptr, ptr, ptr, i8, i8, i8, i8, i16, i16, i32, %struct.anon, %struct.anon.0, ptr, ptr, ptr, %struct.lv_event_list_t, ptr, i32, ptr }
%struct.anon = type { %struct.lv_point_t, %struct.lv_point_t, %struct.lv_point_t, %struct.lv_point_t, %struct.lv_point_t, %struct.lv_point_t, %struct.lv_point_t, ptr, ptr, ptr, ptr, ptr, %struct.lv_area_t, %struct.lv_point_t, i32, i8, %struct.lv_point_t, i32, i16 }
%struct.lv_area_t = type { i32, i32, i32, i32 }
%struct.lv_point_t = type { i32, i32 }
%struct.anon.0 = type { i32, i32 }
%struct.lv_event_list_t = type { %struct._lv_array_t, i8 }
%struct._lv_array_t = type { ptr, i32, i32, i32, i8 }

; Function Attrs: nounwind uwtable
define void @lv_indev_get_point(ptr noundef %0, ptr noundef %1) #0 {
  %3 = alloca ptr, align 8
  %4 = alloca ptr, align 8
  store ptr %0, ptr %3, align 8, !tbaa !8
  store ptr %1, ptr %4, align 8, !tbaa !35
  %5 = load ptr, ptr %3, align 8, !tbaa !8
  %6 = icmp eq ptr %5, null
  br i1 %6, label %7, label %12

7:                                                ; preds = %2
  %8 = load ptr, ptr %4, align 8, !tbaa !35
  %9 = getelementptr inbounds nuw %struct.lv_point_t, ptr %8, i32 0, i32 0
  store i32 0, ptr %9, align 4, !tbaa !124
  %10 = load ptr, ptr %4, align 8, !tbaa !35
  %11 = getelementptr inbounds nuw %struct.lv_point_t, ptr %10, i32 0, i32 1
  store i32 0, ptr %11, align 4, !tbaa !125
  br label %43

12:                                               ; preds = %2
  %13 = load ptr, ptr %3, align 8, !tbaa !8
  %14 = getelementptr inbounds nuw %struct._lv_indev_t, ptr %13, i32 0, i32 0
  %15 = load i32, ptr %14, align 8, !tbaa !26
  %16 = icmp ne i32 %15, 1
  br i1 %16, label %17, label %27

17:                                               ; preds = %12
  %18 = load ptr, ptr %3, align 8, !tbaa !8
  %19 = getelementptr inbounds nuw %struct._lv_indev_t, ptr %18, i32 0, i32 0
  %20 = load i32, ptr %19, align 8, !tbaa !26
  %21 = icmp ne i32 %20, 3
  br i1 %21, label %22, label %27

22:                                               ; preds = %17
  %23 = load ptr, ptr %4, align 8, !tbaa !35
  %24 = getelementptr inbounds nuw %struct.lv_point_t, ptr %23, i32 0, i32 0
  store i32 -1, ptr %24, align 4, !tbaa !124
  %25 = load ptr, ptr %4, align 8, !tbaa !35
  %26 = getelementptr inbounds nuw %struct.lv_point_t, ptr %25, i32 0, i32 1
  store i32 -1, ptr %26, align 4, !tbaa !125
  br label %42

27:                                               ; preds = %17, %12
  %28 = load ptr, ptr %3, align 8, !tbaa !8
  %29 = getelementptr inbounds nuw %struct._lv_indev_t, ptr %28, i32 0, i32 19
  %30 = getelementptr inbounds nuw %struct.anon, ptr %29, i32 0, i32 0
  %31 = getelementptr inbounds nuw %struct.lv_point_t, ptr %30, i32 0, i32 0
  %32 = load i32, ptr %31, align 8, !tbaa !107
  %33 = load ptr, ptr %4, align 8, !tbaa !35
  %34 = getelementptr inbounds nuw %struct.lv_point_t, ptr %33, i32 0, i32 0
  store i32 %32, ptr %34, align 4, !tbaa !124
  %35 = load ptr, ptr %3, align 8, !tbaa !8
  %36 = getelementptr inbounds nuw %struct._lv_indev_t, ptr %35, i32 0, i32 19
  %37 = getelementptr inbounds nuw %struct.anon, ptr %36, i32 0, i32 0
  %38 = getelementptr inbounds nuw %struct.lv_point_t, ptr %37, i32 0, i32 1
  %39 = load i32, ptr %38, align 4, !tbaa !108
  %40 = load ptr, ptr %4, align 8, !tbaa !35
  %41 = getelementptr inbounds nuw %struct.lv_point_t, ptr %40, i32 0, i32 1
  store i32 %39, ptr %41, align 4, !tbaa !125
  br label %42

42:                                               ; preds = %27, %22
  br label %43

43:                                               ; preds = %42, %7
  ret void
}