; Function Attrs: mustprogress nofree norecurse nosync nounwind willreturn memory(argmem: readwrite) uwtable
define void @lv_indev_get_point(ptr noundef readonly captures(address_is_null) %0, ptr noundef writeonly captures(none) initializes((0, 8)) %1) local_unnamed_addr #4 {
  %3 = icmp eq ptr %0, null
  br i1 %3, label %4, label %5

4:                                                ; preds = %2
  store i32 0, ptr %1, align 4, !tbaa !116
  br label %13

5:                                                ; preds = %2
  %6 = load i32, ptr %0, align 8, !tbaa !23
  switch i32 %6, label %7 [
    i32 1, label %8
    i32 3, label %8
  ]

7:                                                ; preds = %5
  store i32 -1, ptr %1, align 4, !tbaa !116
  br label %13

8:                                                ; preds = %5, %5
  %9 = getelementptr inbounds nuw i8, ptr %0, i64 88
  %10 = load i32, ptr %9, align 8, !tbaa !93
  store i32 %10, ptr %1, align 4, !tbaa !116
  %11 = getelementptr inbounds nuw i8, ptr %0, i64 92
  %12 = load i32, ptr %11, align 4, !tbaa !94
  br label %13

13:                                               ; preds = %7, %8, %4
  %.sink = phi i32 [ -1, %7 ], [ %12, %8 ], [ 0, %4 ]
  %14 = getelementptr inbounds nuw i8, ptr %1, i64 4
  store i32 %.sink, ptr %14, align 4, !tbaa !117
  ret void
}